; Function Attrs: nounwind uwtable
define internal range(i32 0, 2) i32 @test_read_dsa_public() #0 {
  %1 = load ptr, ptr @datadir, align 8, !tbaa !4
  %2 = tail call ptr @test_mk_file_path(ptr noundef %1, ptr noundef nonnull @.str.20) #2
  %3 = tail call i32 @test_ptr(ptr noundef nonnull @.str, i32 noundef 31, ptr noundef nonnull @.str.14, ptr noundef %2) #2
  %.not.i = icmp eq i32 %3, 0
  br i1 %.not.i, label %getfile.exit, label %4

4:                                                ; preds = %0
  %5 = tail call ptr @BIO_new_file(ptr noundef %2, ptr noundef nonnull @.str.15) #2
  br label %getfile.exit

getfile.exit:                                     ; preds = %0, %4
  %.0.i = phi ptr [ %5, %4 ], [ null, %0 ]
  tail call void @CRYPTO_free(ptr noundef %2, ptr noundef nonnull @.str, i32 noundef 36) #2
  %6 = tail call i32 @test_ptr(ptr noundef nonnull @.str, i32 noundef 133, ptr noundef nonnull @.str.12, ptr noundef %.0.i) #2
  %.not = icmp eq i32 %6, 0
  br i1 %.not, label %10, label %7

7:                                                ; preds = %getfile.exit
  %8 = tail call ptr @PEM_read_bio_DSA_PUBKEY(ptr noundef %.0.i, ptr noundef null, ptr noundef null, ptr noundef null) #2
  %9 = tail call i32 @test_ptr(ptr noundef nonnull @.str, i32 noundef 137, ptr noundef nonnull @.str.18, ptr noundef %8) #2
  %.not6 = icmp ne i32 %9, 0
  %spec.select = zext i1 %.not6 to i32
  br label %10

10:                                               ; preds = %7, %getfile.exit
  %.05 = phi i32 [ 0, %getfile.exit ], [ %spec.select, %7 ]
  %.0 = phi ptr [ null, %getfile.exit ], [ %8, %7 ]
  %11 = tail call i32 @BIO_free(ptr noundef %.0.i) #2
  tail call void @DSA_free(ptr noundef %.0) #2
  ret i32 %.05
}